; Function Attrs: mustprogress uwtable
define void @_ZN15ProfileTreeView9selectRowEi(ptr noundef nonnull align 8 dereferenceable(48) %0, i32 noundef %1) local_unnamed_addr #0 align 2 personality ptr @__gxx_personality_v0 {
  %3 = alloca %class.QModelIndex, align 8
  %4 = alloca %class.QModelIndex, align 8
  %5 = alloca %class.QItemSelection, align 8
  %6 = alloca %class.QModelIndex, align 8
  %7 = alloca %class.QModelIndex, align 8
  %8 = alloca %class.QModelIndex, align 8
  %9 = alloca %class.QModelIndex, align 8
  %10 = alloca %class.QModelIndex, align 8
  %11 = icmp slt i32 %1, 0
  br i1 %11, label %_ZN14QItemSelectionD2Ev.exit, label %12

12:                                               ; preds = %2
  %13 = tail call noundef ptr @_ZNK17QAbstractItemView5modelEv(ptr noundef nonnull align 8 dereferenceable(40) %0)
  store i32 -1, ptr %4, align 8
  %14 = getelementptr inbounds i8, ptr %4, i64 4
  store i32 -1, ptr %14, align 4
  %15 = getelementptr inbounds i8, ptr %4, i64 8
  call void @llvm.memset.p0.i64(ptr noundef nonnull align 8 dereferenceable(16) %15, i8 0, i64 16, i1 false)
  %16 = load ptr, ptr %13, align 8
  %17 = getelementptr inbounds i8, ptr %16, i64 96
  %18 = load ptr, ptr %17, align 8
  call void %18(ptr dead_on_unwind nonnull writable sret(%class.QModelIndex) align 8 %3, ptr noundef nonnull align 8 dereferenceable(16) %13, i32 noundef %1, i32 noundef 0, ptr noundef nonnull align 8 dereferenceable(24) %4)
  call void @_ZN17QAbstractItemView15setCurrentIndexERK11QModelIndex(ptr noundef nonnull align 8 dereferenceable(40) %0, ptr noundef nonnull align 8 dereferenceable(24) %3)
  %19 = call noundef ptr @_ZNK17QAbstractItemView14selectionModelEv(ptr noundef nonnull align 8 dereferenceable(40) %0)
  %20 = call noundef ptr @_ZNK17QAbstractItemView5modelEv(ptr noundef nonnull align 8 dereferenceable(40) %0)
  store i32 -1, ptr %7, align 8
  %21 = getelementptr inbounds i8, ptr %7, i64 4
  store i32 -1, ptr %21, align 4
  %22 = getelementptr inbounds i8, ptr %7, i64 8
  call void @llvm.memset.p0.i64(ptr noundef nonnull align 8 dereferenceable(16) %22, i8 0, i64 16, i1 false)
  %23 = load ptr, ptr %20, align 8
  %24 = getelementptr inbounds i8, ptr %23, i64 96
  %25 = load ptr, ptr %24, align 8
  call void %25(ptr dead_on_unwind nonnull writable sret(%class.QModelIndex) align 8 %6, ptr noundef nonnull align 8 dereferenceable(16) %20, i32 noundef %1, i32 noundef 0, ptr noundef nonnull align 8 dereferenceable(24) %7)
  %26 = call noundef ptr @_ZNK17QAbstractItemView5modelEv(ptr noundef nonnull align 8 dereferenceable(40) %0)
  %27 = call noundef ptr @_ZNK17QAbstractItemView5modelEv(ptr noundef nonnull align 8 dereferenceable(40) %0)
  store i32 -1, ptr %9, align 8
  %28 = getelementptr inbounds i8, ptr %9, i64 4
  store i32 -1, ptr %28, align 4
  %29 = getelementptr inbounds i8, ptr %9, i64 8
  call void @llvm.memset.p0.i64(ptr noundef nonnull align 8 dereferenceable(16) %29, i8 0, i64 16, i1 false)
  %30 = load ptr, ptr %27, align 8
  %31 = getelementptr inbounds i8, ptr %30, i64 128
  %32 = load ptr, ptr %31, align 8
  %33 = call noundef i32 %32(ptr noundef nonnull align 8 dereferenceable(16) %27, ptr noundef nonnull align 8 dereferenceable(24) %9)
  %34 = add i32 %33, -1
  store i32 -1, ptr %10, align 8
  %35 = getelementptr inbounds i8, ptr %10, i64 4
  store i32 -1, ptr %35, align 4
  %36 = getelementptr inbounds i8, ptr %10, i64 8
  call void @llvm.memset.p0.i64(ptr noundef nonnull align 8 dereferenceable(16) %36, i8 0, i64 16, i1 false)
  %37 = load ptr, ptr %26, align 8
  %38 = getelementptr inbounds i8, ptr %37, i64 96
  %39 = load ptr, ptr %38, align 8
  call void %39(ptr dead_on_unwind nonnull writable sret(%class.QModelIndex) align 8 %8, ptr noundef nonnull align 8 dereferenceable(16) %26, i32 noundef %1, i32 noundef %34, ptr noundef nonnull align 8 dereferenceable(24) %10)
  call void @_ZN14QItemSelectionC1ERK11QModelIndexS2_(ptr noundef nonnull align 8 dereferenceable(24) %5, ptr noundef nonnull align 8 dereferenceable(24) %6, ptr noundef nonnull align 8 dereferenceable(24) %8)
  %40 = load ptr, ptr %19, align 8
  %41 = getelementptr inbounds i8, ptr %40, i64 112
  %42 = load ptr, ptr %41, align 8
  invoke void %42(ptr noundef nonnull align 8 dereferenceable(16) %19, ptr noundef nonnull align 8 dereferenceable(24) %5, i32 3)
          to label %43 unwind label %55

43:                                               ; preds = %12
  %44 = load ptr, ptr %5, align 8
  %.not.i.i.i.i = icmp eq ptr %44, null
  br i1 %.not.i.i.i.i, label %_ZN14QItemSelectionD2Ev.exit, label %_ZN17QArrayDataPointerI19QItemSelectionRangeE5derefEv.exit.i.i.i

_ZN17QArrayDataPointerI19QItemSelectionRangeE5derefEv.exit.i.i.i: ; preds = %43
  %45 = atomicrmw sub ptr %44, i32 1 seq_cst, align 4
  %.not.i.i.i = icmp eq i32 %45, 1
  br i1 %.not.i.i.i, label %46, label %_ZN14QItemSelectionD2Ev.exit

46:                                               ; preds = %_ZN17QArrayDataPointerI19QItemSelectionRangeE5derefEv.exit.i.i.i
  %47 = getelementptr inbounds i8, ptr %5, i64 8
  %48 = load ptr, ptr %47, align 8
  %49 = getelementptr inbounds i8, ptr %5, i64 16
  %50 = load i64, ptr %49, align 8
  %51 = getelementptr %class.QItemSelectionRange, ptr %48, i64 %50
  %.idx.mask.i.i.i.i = and i64 %50, 1152921504606846975
  %.not4.i.i.i.i.i.i.i = icmp eq i64 %.idx.mask.i.i.i.i, 0
  br i1 %.not4.i.i.i.i.i.i.i, label %_ZN9QtPrivate16QGenericArrayOpsI19QItemSelectionRangeE10destroyAllEv.exit.i.i.i, label %.lr.ph.i.i.i.i.i.i.i

.lr.ph.i.i.i.i.i.i.i:                             ; preds = %46, %.lr.ph.i.i.i.i.i.i.i
  %.05.i.i.i.i.i.i.i = phi ptr [ %53, %.lr.ph.i.i.i.i.i.i.i ], [ %48, %46 ]
  %52 = getelementptr inbounds i8, ptr %.05.i.i.i.i.i.i.i, i64 8
  call void @_ZN21QPersistentModelIndexD1Ev(ptr noundef nonnull align 8 dereferenceable(8) %52) #10
  call void @_ZN21QPersistentModelIndexD1Ev(ptr noundef nonnull align 8 dereferenceable(8) %.05.i.i.i.i.i.i.i) #10
  %53 = getelementptr i8, ptr %.05.i.i.i.i.i.i.i, i64 16
  %.not.i.i.i.i.i.i.i = icmp eq ptr %53, %51
  br i1 %.not.i.i.i.i.i.i.i, label %_ZN9QtPrivate16QGenericArrayOpsI19QItemSelectionRangeE10destroyAllEv.exit.i.i.i, label %.lr.ph.i.i.i.i.i.i.i, !llvm.loop !16

_ZN9QtPrivate16QGenericArrayOpsI19QItemSelectionRangeE10destroyAllEv.exit.i.i.i: ; preds = %.lr.ph.i.i.i.i.i.i.i, %46
  %54 = load ptr, ptr %5, align 8
  call void @_ZN10QArrayData10deallocateEPS_xx(ptr noundef %54, i64 noundef 16, i64 noundef 8) #10
  br label %_ZN14QItemSelectionD2Ev.exit

_ZN14QItemSelectionD2Ev.exit:                     ; preds = %_ZN9QtPrivate16QGenericArrayOpsI19QItemSelectionRangeE10destroyAllEv.exit.i.i.i, %_ZN17QArrayDataPointerI19QItemSelectionRangeE5derefEv.exit.i.i.i, %43, %2
  ret void

55:                                               ; preds = %12
  %56 = landingpad { ptr, i32 }
          cleanup
  call void @_ZN14QItemSelectionD2Ev(ptr noundef nonnull align 8 dereferenceable(24) %5) #10
  resume { ptr, i32 } %56
}